target datalayout = "e-m:e-p270:32:32-p271:32:32-p272:64:64-i64:64-i128:128-f80:128-n8:16:32:64-S128"
target triple = "x86_64-unknown-linux-gnu"

%"class.v8::IndirectHandleBase" = type { ptr }
%"class.v8::Local" = type { %"class.v8::LocalBase" }
%"class.v8::LocalBase" = type { %"class.v8::IndirectHandleBase" }
%"class.node::MemoryRetainer" = type { ptr }
%"struct.std::__detail::_Hash_node_base" = type { ptr }
%"struct.std::__detail::_Prime_rehash_policy" = type { float, i64 }
%"class.v8::Global.17" = type { %"class.v8::PersistentBase.18" }
%"class.v8::PersistentBase.18" = type { %"class.v8::IndirectHandleBase" }
%"class.std::vector.96" = type { %"struct.std::_Vector_base.97" }
%"struct.std::_Vector_base.97" = type { %"struct.std::_Vector_base<std::__cxx11::basic_string<char>, std::allocator<std::__cxx11::basic_string<char>>>::_Vector_impl" }
%"struct.std::_Vector_base<std::__cxx11::basic_string<char>, std::allocator<std::__cxx11::basic_string<char>>>::_Vector_impl" = type { %"struct.std::_Vector_base<std::__cxx11::basic_string<char>, std::allocator<std::__cxx11::basic_string<char>>>::_Vector_impl_data" }
%"struct.std::_Vector_base<std::__cxx11::basic_string<char>, std::allocator<std::__cxx11::basic_string<char>>>::_Vector_impl_data" = type { ptr, ptr, ptr }
%"class.node::CleanupQueue" = type { %"class.node::MemoryRetainer", %"class.std::unordered_set.184", i64 }
%"class.std::unordered_set.184" = type { %"class.std::_Hashtable.185" }
%"class.std::_Hashtable.185" = type { ptr, i64, %"struct.std::__detail::_Hash_node_base", i64, %"struct.std::__detail::_Prime_rehash_policy", ptr }
%"class.v8::Local.255" = type { %"class.v8::LocalBase.256" }
%"class.v8::LocalBase.256" = type { %"class.v8::IndirectHandleBase" }
%"class.node::BaseObject" = type { %"class.node::MemoryRetainer", %"class.v8::Global.257", ptr, ptr }
%"class.v8::Global.257" = type { %"class.v8::PersistentBase.258" }
%"class.v8::PersistentBase.258" = type { %"class.v8::IndirectHandleBase" }
%"class.node::Realm" = type { %"class.node::MemoryRetainer", %"class.std::set", %"class.std::set.265", %"class.std::set.265", %"class.std::vector.96", ptr, ptr, %"class.v8::Global.273", %"class.v8::Global.17", %"class.v8::Global.17", %"class.v8::Global.17", %"class.v8::Global.257", %"class.v8::Global.17", %"class.v8::Global.17", %"class.v8::Global.17", %"class.v8::Global.257", %"class.v8::Global.17", %"class.v8::Global.17", %"class.v8::Global.17", %"class.v8::Global.17", %"class.v8::Global.17", %"class.v8::Global.17", %"class.v8::Global.17", %"class.v8::Global.17", %"class.v8::Global.17", %"class.v8::Global.17", %"class.v8::Global.17", %"class.v8::Global.17", %"class.v8::Global.17", %"class.v8::Global.17", %"class.v8::Global.17", %"class.v8::Global.17", %"class.v8::Global.17", %"class.v8::Global.17", %"class.v8::Global.17", %"class.v8::Global.17", %"class.v8::Global.17", %"class.v8::Global.17", %"class.v8::Global.17", %"class.v8::Global.17", %"class.v8::Global.17", %"class.v8::Global.17", %"class.v8::Global.17", %"class.v8::Global.17", %"class.v8::Global.257", %"class.v8::Global.17", %"class.v8::Global.17", %"class.v8::Global.17", %"class.v8::Global.257", %"class.v8::Global.257", %"class.v8::Global.257", %"class.v8::Global.257", %"class.v8::Global.257", %"class.v8::Global.257", %"class.v8::Global.17", %"class.v8::Global.17", %"class.v8::Global.17", %"class.v8::Global.17", %"class.v8::Global.17", %"class.v8::Global.17", %"class.v8::Global.17", %"class.v8::Global.17", %"class.v8::Global.17", %"class.v8::Global.17", %"class.v8::Global.17", %"class.v8::Global.17", %"class.v8::Global.17", %"class.v8::Global.17", i32, i8, i64, i64, %"struct.std::array.275", %"class.node::CleanupQueue" }
%"class.std::set" = type { %"class.std::_Rb_tree" }
%"class.std::_Rb_tree" = type { %"struct.std::_Rb_tree<node::node_module *, node::node_module *, std::_Identity<node::node_module *>, std::less<node::node_module *>>::_Rb_tree_impl" }
%"struct.std::_Rb_tree<node::node_module *, node::node_module *, std::_Identity<node::node_module *>, std::less<node::node_module *>>::_Rb_tree_impl" = type { %"struct.std::_Rb_tree_key_compare", %"struct.std::_Rb_tree_header" }
%"struct.std::_Rb_tree_key_compare" = type { %"struct.std::less" }
%"struct.std::less" = type { i8 }
%"struct.std::_Rb_tree_header" = type { %"struct.std::_Rb_tree_node_base", i64 }
%"struct.std::_Rb_tree_node_base" = type { i32, ptr, ptr, ptr }
%"class.std::set.265" = type { %"class.std::_Rb_tree.266" }
%"class.std::_Rb_tree.266" = type { %"struct.std::_Rb_tree<std::__cxx11::basic_string<char>, std::__cxx11::basic_string<char>, std::_Identity<std::__cxx11::basic_string<char>>, std::less<std::__cxx11::basic_string<char>>>::_Rb_tree_impl" }
%"struct.std::_Rb_tree<std::__cxx11::basic_string<char>, std::__cxx11::basic_string<char>, std::_Identity<std::__cxx11::basic_string<char>>, std::less<std::__cxx11::basic_string<char>>>::_Rb_tree_impl" = type { %"struct.std::_Rb_tree_key_compare.270", %"struct.std::_Rb_tree_header" }
%"struct.std::_Rb_tree_key_compare.270" = type { %"struct.std::less.271" }
%"struct.std::less.271" = type { i8 }
%"class.v8::Global.273" = type { %"class.v8::PersistentBase.274" }
%"class.v8::PersistentBase.274" = type { %"class.v8::IndirectHandleBase" }
%"struct.std::array.275" = type { [12 x %"class.node::BaseObjectPtrImpl"] }
%"class.node::BaseObjectPtrImpl" = type { %union.anon.276 }
%union.anon.276 = type { ptr }

; Function Attrs: mustprogress nounwind uwtable
define linkonce_odr dso_local noundef ptr @_ZNK4node5Realm3envEv(ptr noundef nonnull align 8 dereferenceable(872) %this) #4 comdat align 2 {
entry:
  %this.addr = alloca ptr, align 8
  store ptr %this, ptr %this.addr, align 8
  %this1 = load ptr, ptr %this.addr, align 8
  %env_ = getelementptr inbounds %"class.node::Realm", ptr %this1, i32 0, i32 5
  %0 = load ptr, ptr %env_, align 8
  ret ptr %0
}

; Function Attrs: mustprogress nounwind uwtable
define linkonce_odr dso_local noundef ptr @_ZNK4node10BaseObject3envEv(ptr noundef nonnull align 8 dereferenceable(32) %this) #4 comdat align 2 {
entry:
  %this.addr = alloca ptr, align 8
  store ptr %this, ptr %this.addr, align 8
  %this1 = load ptr, ptr %this.addr, align 8
  %realm_ = getelementptr inbounds %"class.node::BaseObject", ptr %this1, i32 0, i32 2
  %0 = load ptr, ptr %realm_, align 8
  %call = call noundef ptr @_ZNK4node5Realm3envEv(ptr noundef nonnull align 8 dereferenceable(872) %0)
  ret ptr %call
}

; Function Attrs: mustprogress nounwind uwtable
define linkonce_odr dso_local noundef ptr @_ZN4node10BaseObject12FromJSObjectEN2v85LocalINS1_5ValueEEE(ptr %value.coerce) #4 comdat align 2 {
entry:
  %heap_object_ptr.addr.i = alloca i64, align 8
  %offset.addr.i = alloca i32, align 4
  %addr.i = alloca i64, align 8
  %instance_type.addr.i = alloca i32, align 4
  %heap_object_ptr.addr.i2.i = alloca i64, align 8
  %offset.addr.i3.i = alloca i32, align 4
  %addr.i.i22 = alloca i64, align 8
  %heap_object_ptr.addr.i.i23 = alloca i64, align 8
  %offset.addr.i.i24 = alloca i32, align 4
  %obj.addr.i = alloca i64, align 8
  %map.i = alloca i64, align 8
  %value.addr.i = alloca ptr, align 8
  %this.addr.i19 = alloca ptr, align 8
  %other.addr.i20 = alloca ptr, align 8
  %this.addr.i17 = alloca ptr, align 8
  %other.addr.i = alloca ptr, align 8
  %retval.i16 = alloca %"class.v8::Local.255", align 8
  %that.i = alloca %"class.v8::Local", align 8
  %ref.tmp.i = alloca %"class.v8::LocalBase.256", align 8
  %heap_object_ptr.addr.i8.i = alloca i64, align 8
  %offset.addr.i9.i = alloca i32, align 4
  %addr.i.i = alloca i64, align 8
  %isolate.addr.i.i = alloca ptr, align 8
  %heap_object_ptr.addr.i.i = alloca i64, align 8
  %offset.addr.i.i = alloca i32, align 4
  %obj.addr.i.i = alloca i64, align 8
  %retval.i12 = alloca ptr, align 8
  %this.addr.i13 = alloca ptr, align 8
  %index.addr.i = alloca i32, align 4
  %obj.i = alloca i64, align 8
  %instance_type.i = alloca i32, align 4
  %offset.i = alloca i32, align 4
  %isolate.i = alloca ptr, align 8
  %value.i = alloca i64, align 8
  %retval.i = alloca %"class.v8::Local.255", align 8
  %this.addr.i10 = alloca ptr, align 8
  %agg.tmp.i = alloca %"class.v8::Local", align 8
  %slot.addr.i = alloca ptr, align 8
  %this.addr.i.i = alloca ptr, align 8
  %this.addr.i8 = alloca ptr, align 8
  %this.addr.i = alloca ptr, align 8
  %value = alloca %"class.v8::Local", align 8
  %obj = alloca %"class.v8::Local.255", align 8
  %coerce.dive = getelementptr inbounds %"class.v8::Local", ptr %value, i32 0, i32 0
  %coerce.dive1 = getelementptr inbounds %"class.v8::LocalBase", ptr %coerce.dive, i32 0, i32 0
  %coerce.dive2 = getelementptr inbounds %"class.v8::IndirectHandleBase", ptr %coerce.dive1, i32 0, i32 0
  store ptr %value.coerce, ptr %coerce.dive2, align 8
  store ptr %value, ptr %this.addr.i10, align 8
  %this1.i11 = load ptr, ptr %this.addr.i10, align 8
  call void @llvm.memcpy.p0.p0.i64(ptr align 8 %agg.tmp.i, ptr align 8 %this1.i11, i64 8, i1 false)
  %0 = load ptr, ptr %agg.tmp.i, align 8
  store ptr %0, ptr %that.i, align 8
  store ptr %ref.tmp.i, ptr %this.addr.i17, align 8
  store ptr %that.i, ptr %other.addr.i, align 8
  %this1.i18 = load ptr, ptr %this.addr.i17, align 8
  %1 = load ptr, ptr %other.addr.i, align 8
  call void @llvm.memcpy.p0.p0.i64(ptr align 8 %this1.i18, ptr align 8 %1, i64 8, i1 false)
  store ptr %retval.i16, ptr %this.addr.i19, align 8
  store ptr %ref.tmp.i, ptr %other.addr.i20, align 8
  %this1.i21 = load ptr, ptr %this.addr.i19, align 8
  %2 = load ptr, ptr %other.addr.i20, align 8
  call void @llvm.memcpy.p0.p0.i64(ptr align 8 %this1.i21, ptr align 8 %2, i64 8, i1 false)
  %3 = load ptr, ptr %retval.i16, align 8
  store ptr %3, ptr %retval.i, align 8
  %4 = load ptr, ptr %retval.i, align 8
  %coerce.dive3 = getelementptr inbounds %"class.v8::Local.255", ptr %obj, i32 0, i32 0
  %coerce.dive4 = getelementptr inbounds %"class.v8::LocalBase.256", ptr %coerce.dive3, i32 0, i32 0
  %coerce.dive5 = getelementptr inbounds %"class.v8::IndirectHandleBase", ptr %coerce.dive4, i32 0, i32 0
  store ptr %4, ptr %coerce.dive5, align 8
  store ptr %obj, ptr %this.addr.i, align 8
  %this1.i = load ptr, ptr %this.addr.i, align 8
  store ptr %this1.i, ptr %this.addr.i8, align 8
  %this1.i9 = load ptr, ptr %this.addr.i8, align 8
  store ptr %this1.i9, ptr %this.addr.i.i, align 8
  %this1.i.i = load ptr, ptr %this.addr.i.i, align 8
  %5 = load ptr, ptr %this1.i.i, align 8
  store ptr %5, ptr %slot.addr.i, align 8
  %6 = load ptr, ptr %slot.addr.i, align 8
  store ptr %6, ptr %this.addr.i13, align 8
  store i32 1, ptr %index.addr.i, align 4
  %this1.i14 = load ptr, ptr %this.addr.i13, align 8
  store ptr %this1.i14, ptr %value.addr.i, align 8
  %7 = load ptr, ptr %value.addr.i, align 8
  %8 = load i64, ptr %7, align 8
  store i64 %8, ptr %obj.i, align 8
  %9 = load i64, ptr %obj.i, align 8
  store i64 %9, ptr %obj.addr.i, align 8
  %10 = load i64, ptr %obj.addr.i, align 8
  store i64 %10, ptr %heap_object_ptr.addr.i.i23, align 8
  store i32 0, ptr %offset.addr.i.i24, align 4
  %11 = load i64, ptr %heap_object_ptr.addr.i.i23, align 8
  %12 = load i32, ptr %offset.addr.i.i24, align 4
  store i64 %11, ptr %heap_object_ptr.addr.i2.i, align 8
  store i32 %12, ptr %offset.addr.i3.i, align 4
  %13 = load i64, ptr %heap_object_ptr.addr.i2.i, align 8
  %14 = load i32, ptr %offset.addr.i3.i, align 4
  %conv.i.i25 = sext i32 %14 to i64
  %add.i.i26 = add i64 %13, %conv.i.i25
  %sub.i.i27 = sub i64 %add.i.i26, 1
  store i64 %sub.i.i27, ptr %addr.i.i22, align 8
  %15 = load i64, ptr %addr.i.i22, align 8
  %16 = inttoptr i64 %15 to ptr
  %17 = load i64, ptr %16, align 8
  store i64 %17, ptr %map.i, align 8
  %18 = load i64, ptr %map.i, align 8
  store i64 %18, ptr %heap_object_ptr.addr.i, align 8
  store i32 12, ptr %offset.addr.i, align 4
  %19 = load i64, ptr %heap_object_ptr.addr.i, align 8
  %20 = load i32, ptr %offset.addr.i, align 4
  %conv.i28 = sext i32 %20 to i64
  %add.i29 = add i64 %19, %conv.i28
  %sub.i30 = sub i64 %add.i29, 1
  store i64 %sub.i30, ptr %addr.i, align 8
  %21 = load i64, ptr %addr.i, align 8
  %22 = inttoptr i64 %21 to ptr
  %23 = load i16, ptr %22, align 2
  %conv.i = zext i16 %23 to i32
  store i32 %conv.i, ptr %instance_type.i, align 4
  %24 = load i32, ptr %instance_type.i, align 4
  store i32 %24, ptr %instance_type.addr.i, align 4
  %25 = load i32, ptr %instance_type.addr.i, align 4
  %cmp.i = icmp eq i32 %25, 1040
  br i1 %cmp.i, label %_ZN2v88internal9Internals20CanHaveInternalFieldEi.exit, label %lor.rhs.i

lor.rhs.i:                                        ; preds = %entry
  %26 = load i32, ptr %instance_type.addr.i, align 4
  %sub.i = sub i32 %26, 1057
  %cmp1.i = icmp ule i32 %sub.i, 1001
  br label %_ZN2v88internal9Internals20CanHaveInternalFieldEi.exit

_ZN2v88internal9Internals20CanHaveInternalFieldEi.exit: ; preds = %lor.rhs.i, %entry
  %27 = phi i1 [ true, %entry ], [ %cmp1.i, %lor.rhs.i ]
  br i1 %27, label %if.then.i, label %if.end.i

if.then.i:                                        ; preds = %_ZN2v88internal9Internals20CanHaveInternalFieldEi.exit
  %28 = load i32, ptr %index.addr.i, align 4
  %mul.i = mul nsw i32 8, %28
  %add.i = add nsw i32 24, %mul.i
  store i32 %add.i, ptr %offset.i, align 4
  %29 = load i64, ptr %obj.i, align 8
  store i64 %29, ptr %obj.addr.i.i, align 8
  store ptr null, ptr %isolate.i, align 8
  %30 = load ptr, ptr %isolate.i, align 8
  %31 = load i64, ptr %obj.i, align 8
  %32 = load i32, ptr %offset.i, align 4
  store ptr %30, ptr %isolate.addr.i.i, align 8
  store i64 %31, ptr %heap_object_ptr.addr.i.i, align 8
  store i32 %32, ptr %offset.addr.i.i, align 4
  %33 = load i64, ptr %heap_object_ptr.addr.i.i, align 8
  %34 = load i32, ptr %offset.addr.i.i, align 4
  store i64 %33, ptr %heap_object_ptr.addr.i8.i, align 8
  store i32 %34, ptr %offset.addr.i9.i, align 4
  %35 = load i64, ptr %heap_object_ptr.addr.i8.i, align 8
  %36 = load i32, ptr %offset.addr.i9.i, align 4
  %conv.i.i = sext i32 %36 to i64
  %add.i.i = add i64 %35, %conv.i.i
  %sub.i.i = sub i64 %add.i.i, 1
  store i64 %sub.i.i, ptr %addr.i.i, align 8
  %37 = load i64, ptr %addr.i.i, align 8
  %38 = inttoptr i64 %37 to ptr
  %39 = load i64, ptr %38, align 8
  store i64 %39, ptr %value.i, align 8
  %40 = load i64, ptr %value.i, align 8
  %41 = inttoptr i64 %40 to ptr
  store ptr %41, ptr %retval.i12, align 8
  br label %_ZN2v86Object34GetAlignedPointerFromInternalFieldEi.exit

if.end.i:                                         ; preds = %_ZN2v88internal9Internals20CanHaveInternalFieldEi.exit
  %42 = load i32, ptr %index.addr.i, align 4
  %call7.i = call noundef ptr @_ZN2v86Object38SlowGetAlignedPointerFromInternalFieldEi(ptr noundef nonnull align 1 dereferenceable(1) %this1.i14, i32 noundef %42) #3
  store ptr %call7.i, ptr %retval.i12, align 8
  br label %_ZN2v86Object34GetAlignedPointerFromInternalFieldEi.exit

_ZN2v86Object34GetAlignedPointerFromInternalFieldEi.exit: ; preds = %if.end.i, %if.then.i
  %43 = load ptr, ptr %retval.i12, align 8
  ret ptr %43
}

; Function Attrs: mustprogress nounwind uwtable
define dso_local void @_ZN4node6timers11BindingData22ToggleImmediateRefImplEPS1_b(ptr noundef %data, i1 noundef zeroext %ref) #4 align 2 {
entry:
  %data.addr = alloca ptr, align 8
  %ref.addr = alloca i8, align 1
  store ptr %data, ptr %data.addr, align 8
  %frombool = zext i1 %ref to i8
  store i8 %frombool, ptr %ref.addr, align 1
  %0 = load ptr, ptr %data.addr, align 8
  %call = call noundef ptr @_ZNK4node10BaseObject3envEv(ptr noundef nonnull align 8 dereferenceable(32) %0)
  %1 = load i8, ptr %ref.addr, align 1
  %tobool = trunc i8 %1 to i1
  call void @_ZN4node11Environment18ToggleImmediateRefEb(ptr noundef nonnull align 8 dereferenceable(2872) %call, i1 noundef zeroext %tobool)
  ret void
}

; Function Attrs: mustprogress nounwind uwtable
define linkonce_odr dso_local noundef ptr @_ZN4node10BaseObject12FromJSObjectINS_6timers11BindingDataEEEPT_N2v85LocalINS6_5ValueEEE(ptr %object.coerce) #4 comdat align 2 {
entry:
  %object = alloca %"class.v8::Local", align 8
  %agg.tmp = alloca %"class.v8::Local", align 8
  %coerce.dive = getelementptr inbounds %"class.v8::Local", ptr %object, i32 0, i32 0
  %coerce.dive1 = getelementptr inbounds %"class.v8::LocalBase", ptr %coerce.dive, i32 0, i32 0
  %coerce.dive2 = getelementptr inbounds %"class.v8::IndirectHandleBase", ptr %coerce.dive1, i32 0, i32 0
  store ptr %object.coerce, ptr %coerce.dive2, align 8
  call void @llvm.memcpy.p0.p0.i64(ptr align 8 %agg.tmp, ptr align 8 %object, i64 8, i1 false)
  %coerce.dive3 = getelementptr inbounds %"class.v8::Local", ptr %agg.tmp, i32 0, i32 0
  %coerce.dive4 = getelementptr inbounds %"class.v8::LocalBase", ptr %coerce.dive3, i32 0, i32 0
  %coerce.dive5 = getelementptr inbounds %"class.v8::IndirectHandleBase", ptr %coerce.dive4, i32 0, i32 0
  %0 = load ptr, ptr %coerce.dive5, align 8
  %call = call noundef ptr @_ZN4node10BaseObject12FromJSObjectEN2v85LocalINS1_5ValueEEE(ptr %0)
  ret ptr %call
}

; Function Attrs: mustprogress nounwind uwtable
define dso_local void @_ZN4node6timers11BindingData22FastToggleImmediateRefEN2v85LocalINS2_6ObjectEEEb(ptr %receiver.coerce, i1 noundef zeroext %ref) #4 align 2 {
entry:
  %this.addr.i10 = alloca ptr, align 8
  %other.addr.i = alloca ptr, align 8
  %that.i = alloca %"class.v8::Local.255", align 8
  %this.addr.i = alloca ptr, align 8
  %receiver = alloca %"class.v8::Local.255", align 8
  %ref.addr = alloca i8, align 1
  %agg.tmp = alloca %"class.v8::Local", align 8
  %agg.tmp3 = alloca %"class.v8::Local.255", align 8
  %coerce.dive = getelementptr inbounds %"class.v8::Local.255", ptr %receiver, i32 0, i32 0
  %coerce.dive1 = getelementptr inbounds %"class.v8::LocalBase.256", ptr %coerce.dive, i32 0, i32 0
  %coerce.dive2 = getelementptr inbounds %"class.v8::IndirectHandleBase", ptr %coerce.dive1, i32 0, i32 0
  store ptr %receiver.coerce, ptr %coerce.dive2, align 8
  %frombool = zext i1 %ref to i8
  store i8 %frombool, ptr %ref.addr, align 1
  call void @llvm.memcpy.p0.p0.i64(ptr align 8 %agg.tmp3, ptr align 8 %receiver, i64 8, i1 false)
  %coerce.dive4 = getelementptr inbounds %"class.v8::Local.255", ptr %agg.tmp3, i32 0, i32 0
  %coerce.dive5 = getelementptr inbounds %"class.v8::LocalBase.256", ptr %coerce.dive4, i32 0, i32 0
  %coerce.dive6 = getelementptr inbounds %"class.v8::IndirectHandleBase", ptr %coerce.dive5, i32 0, i32 0
  %0 = load ptr, ptr %coerce.dive6, align 8
  store ptr %0, ptr %that.i, align 8
  store ptr %agg.tmp, ptr %this.addr.i, align 8
  %this3.i = load ptr, ptr %this.addr.i, align 8
  store ptr %this3.i, ptr %this.addr.i10, align 8
  store ptr %that.i, ptr %other.addr.i, align 8
  %this1.i = load ptr, ptr %this.addr.i10, align 8
  %1 = load ptr, ptr %other.addr.i, align 8
  call void @llvm.memcpy.p0.p0.i64(ptr align 8 %this1.i, ptr align 8 %1, i64 8, i1 false)
  %coerce.dive7 = getelementptr inbounds %"class.v8::Local", ptr %agg.tmp, i32 0, i32 0
  %coerce.dive8 = getelementptr inbounds %"class.v8::LocalBase", ptr %coerce.dive7, i32 0, i32 0
  %coerce.dive9 = getelementptr inbounds %"class.v8::IndirectHandleBase", ptr %coerce.dive8, i32 0, i32 0
  %2 = load ptr, ptr %coerce.dive9, align 8
  %call = call noundef ptr @_ZN4node10BaseObject12FromJSObjectINS_6timers11BindingDataEEEPT_N2v85LocalINS6_5ValueEEE(ptr %2)
  %3 = load i8, ptr %ref.addr, align 1
  %tobool = trunc i8 %3 to i1
  call void @_ZN4node6timers11BindingData22ToggleImmediateRefImplEPS1_b(ptr noundef %call, i1 noundef zeroext %tobool)
  ret void
}